; Function Attrs: mustprogress uwtable
define dso_local void @_ZN11conformance18ConformanceRequest8CopyFromERKS0_(ptr noundef nonnull align 8 dereferenceable(64) %this, ptr noundef nonnull align 8 dereferenceable(64) %from) local_unnamed_addr #3 align 2 {
entry:
  %cmp = icmp eq ptr %from, %this
  br i1 %cmp, label %return, label %if.end

if.end:                                           ; preds = %entry
  tail call void @_ZN11conformance18ConformanceRequest5ClearEv(ptr noundef nonnull align 8 dereferenceable(64) %this)
  tail call void @_ZN11conformance18ConformanceRequest9MergeFromERKS0_(ptr noundef nonnull align 8 dereferenceable(64) %this, ptr noundef nonnull align 8 dereferenceable(64) %from)
  br label %return

return:                                           ; preds = %entry, %if.end
  ret void
}